target datalayout = "e-m:e-p270:32:32-p271:32:32-p272:64:64-i64:64-i128:128-f80:128-n8:16:32:64-S128"
target triple = "x86_64-pc-linux-gnu"

%struct.RBasic = type { i64, i64 }
%struct.RData = type { %struct.RBasic, ptr, ptr, ptr }
%struct.rb_proc_t = type { %struct.rb_block, i8 }
%struct.rb_block = type { %union.anon.12, i32 }
%union.anon.12 = type { %struct.rb_captured_block }
%struct.rb_captured_block = type { i64, ptr, %union.anon.13 }
%union.anon.13 = type { ptr }
%struct.rb_execution_context_struct = type { ptr, i64, ptr, ptr, i32, i32, ptr, ptr, ptr, i64, i64, i64, ptr, i64, ptr, i64, i64, i8, i8, i64, %struct.anon.7 }
%struct.anon.7 = type { ptr, ptr, i64, [1 x %struct.__jmp_buf_tag] }
%struct.__jmp_buf_tag = type { [8 x i64], i32, %struct.__sigset_t }
%struct.__sigset_t = type { [16 x i64] }
%struct.rb_control_frame_struct = type { ptr, ptr, ptr, i64, ptr, ptr, ptr }

@rb_cProc = dso_local global i64 0, align 8
@rb_eArgError = external global i64, align 8
@ruby_current_ec = external thread_local global ptr, align 8
@.str.89 = private unnamed_addr constant [43 x i8] c"the lambda method requires a literal block\00", align 1

; Function Attrs: inlinehint nounwind sspstrong willreturn memory(none) uwtable
define internal zeroext i1 @RB_IMMEDIATE_P(i64 noundef %0) #12 {
  %2 = alloca i64, align 8
  store i64 %0, ptr %2, align 8, !tbaa !7
  %3 = load i64, ptr %2, align 8, !tbaa !7
  %4 = and i64 %3, 7
  %5 = icmp ne i64 %4, 0
  ret i1 %5
}

; Function Attrs: inlinehint nounwind sspstrong willreturn memory(read) uwtable
define internal i32 @RB_BUILTIN_TYPE(i64 noundef %0) #7 {
  %2 = alloca i64, align 8
  %3 = alloca i64, align 8
  store i64 %0, ptr %2, align 8, !tbaa !7
  call void @llvm.lifetime.start.p0(i64 8, ptr %3) #25
  %4 = load i64, ptr %2, align 8, !tbaa !7
  %5 = inttoptr i64 %4 to ptr
  %6 = getelementptr inbounds nuw %struct.RBasic, ptr %5, i32 0, i32 0
  %7 = load i64, ptr %6, align 8, !tbaa !89
  %8 = and i64 %7, 31
  store i64 %8, ptr %3, align 8, !tbaa !7
  %9 = load i64, ptr %3, align 8, !tbaa !7
  %10 = trunc i64 %9 to i32
  call void @llvm.lifetime.end.p0(i64 8, ptr %3) #25
  ret i32 %10
}

; Function Attrs: inlinehint nounwind sspstrong willreturn memory(none) uwtable
define internal zeroext i1 @RB_SPECIAL_CONST_P(i64 noundef %0) #12 {
  %2 = alloca i64, align 8
  store i64 %0, ptr %2, align 8, !tbaa !7
  %3 = load i64, ptr %2, align 8, !tbaa !7
  %4 = icmp eq i64 %3, 0
  br i1 %4, label %8, label %5

5:                                                ; preds = %1
  %6 = load i64, ptr %2, align 8, !tbaa !7
  %7 = call zeroext i1 @RB_IMMEDIATE_P(i64 noundef %6) #29
  br label %8

8:                                                ; preds = %5, %1
  %9 = phi i1 [ true, %1 ], [ %7, %5 ]
  ret i1 %9
}

; Function Attrs: inlinehint nounwind sspstrong willreturn memory(read) uwtable
define internal zeroext i1 @RB_DYNAMIC_SYM_P(i64 noundef %0) #7 {
  %2 = alloca i1, align 1
  %3 = alloca i64, align 8
  store i64 %0, ptr %3, align 8, !tbaa !7
  %4 = load i64, ptr %3, align 8, !tbaa !7
  %5 = call zeroext i1 @RB_SPECIAL_CONST_P(i64 noundef %4) #29
  br i1 %5, label %6, label %7

6:                                                ; preds = %1
  store i1 false, ptr %2, align 1
  br label %11

7:                                                ; preds = %1
  %8 = load i64, ptr %3, align 8, !tbaa !7
  %9 = call i32 @RB_BUILTIN_TYPE(i64 noundef %8) #28
  %10 = icmp eq i32 %9, 20
  store i1 %10, ptr %2, align 1
  br label %11

11:                                               ; preds = %7, %6
  %12 = load i1, ptr %2, align 1
  ret i1 %12
}

; Function Attrs: inlinehint nounwind sspstrong willreturn memory(none) uwtable
define internal zeroext i1 @RB_STATIC_SYM_P(i64 noundef %0) #12 {
  %2 = alloca i64, align 8
  %3 = alloca i64, align 8
  store i64 %0, ptr %2, align 8, !tbaa !7
  call void @llvm.lifetime.start.p0(i64 8, ptr %3) #25
  store i64 255, ptr %3, align 8, !tbaa !7
  %4 = load i64, ptr %2, align 8, !tbaa !7
  %5 = and i64 %4, 255
  %6 = icmp eq i64 %5, 12
  call void @llvm.lifetime.end.p0(i64 8, ptr %3) #25
  ret i1 %6
}

; Function Attrs: inlinehint nounwind sspstrong willreturn memory(read) uwtable
define internal zeroext i1 @RB_SYMBOL_P(i64 noundef %0) #7 {
  %2 = alloca i64, align 8
  store i64 %0, ptr %2, align 8, !tbaa !7
  %3 = load i64, ptr %2, align 8, !tbaa !7
  %4 = call zeroext i1 @RB_STATIC_SYM_P(i64 noundef %3) #29
  br i1 %4, label %8, label %5

5:                                                ; preds = %1
  %6 = load i64, ptr %2, align 8, !tbaa !7
  %7 = call zeroext i1 @RB_DYNAMIC_SYM_P(i64 noundef %6) #28
  br label %8

8:                                                ; preds = %5, %1
  %9 = phi i1 [ true, %1 ], [ %7, %5 ]
  ret i1 %9
}

; Function Attrs: inlinehint nounwind sspstrong uwtable
define internal i32 @VM_BH_IFUNC_P(i64 noundef %0) #3 {
  %2 = alloca i32, align 4
  %3 = alloca i64, align 8
  store i64 %0, ptr %3, align 8, !tbaa !7
  %4 = load i64, ptr %3, align 8, !tbaa !7
  %5 = and i64 %4, 3
  %6 = icmp eq i64 %5, 3
  br i1 %6, label %7, label %8

7:                                                ; preds = %1
  store i32 1, ptr %2, align 4
  br label %9

8:                                                ; preds = %1
  store i32 0, ptr %2, align 4
  br label %9

9:                                                ; preds = %8, %7
  %10 = load i32, ptr %2, align 4
  ret i32 %10
}

; Function Attrs: inlinehint nounwind sspstrong uwtable
define internal i32 @VM_BH_ISEQ_BLOCK_P(i64 noundef %0) #3 {
  %2 = alloca i32, align 4
  %3 = alloca i64, align 8
  store i64 %0, ptr %3, align 8, !tbaa !7
  %4 = load i64, ptr %3, align 8, !tbaa !7
  %5 = and i64 %4, 3
  %6 = icmp eq i64 %5, 1
  br i1 %6, label %7, label %8

7:                                                ; preds = %1
  store i32 1, ptr %2, align 4
  br label %9

8:                                                ; preds = %1
  store i32 0, ptr %2, align 4
  br label %9

9:                                                ; preds = %8, %7
  %10 = load i32, ptr %2, align 4
  ret i32 %10
}

; Function Attrs: nounwind sspstrong uwtable
define dso_local i64 @rb_proc_lambda_p(i64 noundef %0) #0 {
  %2 = alloca i64, align 8
  %3 = alloca ptr, align 8
  store i64 %0, ptr %2, align 8, !tbaa !7
  call void @llvm.lifetime.start.p0(i64 8, ptr %3) #25
  %4 = load i64, ptr %2, align 8, !tbaa !7
  %5 = inttoptr i64 %4 to ptr
  %6 = getelementptr inbounds nuw %struct.RData, ptr %5, i32 0, i32 3
  %7 = load ptr, ptr %6, align 8, !tbaa !17
  store ptr %7, ptr %3, align 8, !tbaa !11
  %8 = load ptr, ptr %3, align 8, !tbaa !11
  %9 = getelementptr inbounds nuw %struct.rb_proc_t, ptr %8, i32 0, i32 1
  %10 = load i8, ptr %9, align 8
  %11 = lshr i8 %10, 1
  %12 = and i8 %11, 1
  %13 = zext i8 %12 to i32
  %14 = icmp ne i32 %13, 0
  %15 = select i1 %14, i64 20, i64 0
  call void @llvm.lifetime.end.p0(i64 8, ptr %3) #25
  ret i64 %15
}

; Function Attrs: inlinehint nounwind sspstrong uwtable
define internal i64 @VM_BH_TO_PROC(i64 noundef %0) #3 {
  %2 = alloca i64, align 8
  store i64 %0, ptr %2, align 8, !tbaa !7
  %3 = load i64, ptr %2, align 8, !tbaa !7
  ret i64 %3
}

; Function Attrs: inlinehint nounwind sspstrong uwtable
define internal ptr @VM_BH_TO_ISEQ_BLOCK(i64 noundef %0) #3 {
  %2 = alloca i64, align 8
  %3 = alloca ptr, align 8
  store i64 %0, ptr %2, align 8, !tbaa !7
  call void @llvm.lifetime.start.p0(i64 8, ptr %3) #25
  %4 = load i64, ptr %2, align 8, !tbaa !7
  %5 = and i64 %4, -4
  %6 = inttoptr i64 %5 to ptr
  store ptr %6, ptr %3, align 8, !tbaa !137
  %7 = load ptr, ptr %3, align 8, !tbaa !137
  call void @llvm.lifetime.end.p0(i64 8, ptr %3) #25
  ret ptr %7
}

; Function Attrs: inlinehint nounwind sspstrong uwtable
define internal i32 @vm_block_handler_type(i64 noundef %0) #3 {
  %2 = alloca i32, align 4
  %3 = alloca i64, align 8
  store i64 %0, ptr %3, align 8, !tbaa !7
  %4 = load i64, ptr %3, align 8, !tbaa !7
  %5 = call i32 @VM_BH_ISEQ_BLOCK_P(i64 noundef %4)
  %6 = icmp ne i32 %5, 0
  br i1 %6, label %7, label %8

7:                                                ; preds = %1
  store i32 0, ptr %2, align 4
  br label %18

8:                                                ; preds = %1
  %9 = load i64, ptr %3, align 8, !tbaa !7
  %10 = call i32 @VM_BH_IFUNC_P(i64 noundef %9)
  %11 = icmp ne i32 %10, 0
  br i1 %11, label %12, label %13

12:                                               ; preds = %8
  store i32 1, ptr %2, align 4
  br label %18

13:                                               ; preds = %8
  %14 = load i64, ptr %3, align 8, !tbaa !7
  %15 = call zeroext i1 @RB_SYMBOL_P(i64 noundef %14) #28
  br i1 %15, label %16, label %17

16:                                               ; preds = %13
  store i32 2, ptr %2, align 4
  br label %18

17:                                               ; preds = %13
  store i32 3, ptr %2, align 4
  br label %18

18:                                               ; preds = %17, %16, %12, %7
  %19 = load i32, ptr %2, align 4
  ret i32 %19
}

; Function Attrs: inlinehint nounwind sspstrong uwtable
define internal ptr @rb_current_execution_context(i1 noundef zeroext %0) #3 {
  %2 = alloca i8, align 1
  %3 = alloca ptr, align 8
  %4 = zext i1 %0 to i8
  store i8 %4, ptr %2, align 1, !tbaa !32
  call void @llvm.lifetime.start.p0(i64 8, ptr %3) #25
  %5 = call align 8 ptr @llvm.threadlocal.address.p0(ptr align 8 @ruby_current_ec)
  %6 = load ptr, ptr %5, align 8, !tbaa !19
  store ptr %6, ptr %3, align 8, !tbaa !19
  %7 = load ptr, ptr %3, align 8, !tbaa !19
  call void @llvm.lifetime.end.p0(i64 8, ptr %3) #25
  ret ptr %7
}

; Function Attrs: nounwind sspstrong uwtable
define dso_local i64 @rb_block_lambda() #0 {
  %1 = load i64, ptr @rb_cProc, align 8, !tbaa !7
  %2 = call i64 @proc_new(i64 noundef %1, i8 noundef signext 1)
  ret i64 %2
}

; Function Attrs: nounwind sspstrong uwtable
define internal void @f_lambda_filter_non_literal() #0 {
  %1 = alloca ptr, align 8
  %2 = alloca i64, align 8
  %3 = alloca i32, align 4
  call void @llvm.lifetime.start.p0(i64 8, ptr %1) #25
  %4 = call ptr @rb_current_execution_context(i1 noundef zeroext true)
  %5 = getelementptr inbounds nuw %struct.rb_execution_context_struct, ptr %4, i32 0, i32 2
  %6 = load ptr, ptr %5, align 8, !tbaa !21
  store ptr %6, ptr %1, align 8, !tbaa !44
  call void @llvm.lifetime.start.p0(i64 8, ptr %2) #25
  %7 = load ptr, ptr %1, align 8, !tbaa !44
  %8 = call i64 @rb_vm_frame_block_handler(ptr noundef %7)
  store i64 %8, ptr %2, align 8, !tbaa !7
  %9 = load i64, ptr %2, align 8, !tbaa !7
  %10 = icmp eq i64 %9, 0
  br i1 %10, label %11, label %12

11:                                               ; preds = %0
  store i32 1, ptr %3, align 4
  br label %37

12:                                               ; preds = %0
  %13 = load i64, ptr %2, align 8, !tbaa !7
  %14 = call i32 @vm_block_handler_type(i64 noundef %13)
  switch i32 %14, label %35 [
    i32 0, label %15
    i32 2, label %27
    i32 3, label %28
    i32 1, label %35
  ]

15:                                               ; preds = %12
  %16 = load ptr, ptr %1, align 8, !tbaa !44
  %17 = getelementptr %struct.rb_control_frame_struct, ptr %16, i64 1
  %18 = getelementptr inbounds nuw %struct.rb_control_frame_struct, ptr %17, i32 0, i32 4
  %19 = load ptr, ptr %18, align 8, !tbaa !162
  %20 = load i64, ptr %2, align 8, !tbaa !7
  %21 = call ptr @VM_BH_TO_ISEQ_BLOCK(i64 noundef %20)
  %22 = getelementptr inbounds nuw %struct.rb_captured_block, ptr %21, i32 0, i32 1
  %23 = load ptr, ptr %22, align 8, !tbaa !139
  %24 = icmp eq ptr %19, %23
  br i1 %24, label %25, label %26

25:                                               ; preds = %15
  store i32 1, ptr %3, align 4
  br label %37

26:                                               ; preds = %15
  br label %35

27:                                               ; preds = %12
  store i32 1, ptr %3, align 4
  br label %37

28:                                               ; preds = %12
  %29 = load i64, ptr %2, align 8, !tbaa !7
  %30 = call i64 @VM_BH_TO_PROC(i64 noundef %29)
  %31 = call i64 @rb_proc_lambda_p(i64 noundef %30)
  %32 = icmp ne i64 %31, 0
  br i1 %32, label %33, label %34

33:                                               ; preds = %28
  store i32 1, ptr %3, align 4
  br label %37

34:                                               ; preds = %28
  br label %35

35:                                               ; preds = %12, %12, %34, %26
  %36 = load i64, ptr @rb_eArgError, align 8, !tbaa !7
  call void (i64, ptr, ...) @rb_raise(i64 noundef %36, ptr noundef @.str.89) #27
  unreachable

37:                                               ; preds = %33, %27, %25, %11
  call void @llvm.lifetime.end.p0(i64 8, ptr %2) #25
  call void @llvm.lifetime.end.p0(i64 8, ptr %1) #25
  ret void
}

; Function Attrs: nounwind sspstrong uwtable
define internal i64 @f_lambda(i64 noundef %0) #0 {
  %2 = alloca i64, align 8
  store i64 %0, ptr %2, align 8, !tbaa !7
  call void @f_lambda_filter_non_literal()
  %3 = call i64 @rb_block_lambda()
  ret i64 %3
}