; Function Attrs: nounwind sspstrong uwtable
define internal i64 @f_lambda(i64 %0) #0 {
  %2 = tail call align 8 ptr @llvm.threadlocal.address.p0(ptr align 8 @ruby_current_ec)
  %3 = load ptr, ptr %2, align 8, !tbaa !20
  %4 = getelementptr inbounds nuw i8, ptr %3, i64 16
  %5 = load ptr, ptr %4, align 8, !tbaa !22
  %6 = tail call i64 @rb_vm_frame_block_handler(ptr noundef %5) #21
  %7 = icmp eq i64 %6, 0
  br i1 %7, label %f_lambda_filter_non_literal.exit, label %8

8:                                                ; preds = %1
  %9 = and i64 %6, 3
  switch i64 %9, label %10 [
    i64 1, label %19
    i64 3, label %vm_block_handler_type.exit.i
  ]

10:                                               ; preds = %8
  %11 = and i64 %6, 255
  %12 = icmp eq i64 %11, 12
  br i1 %12, label %f_lambda_filter_non_literal.exit, label %13

13:                                               ; preds = %10
  %14 = and i64 %6, 7
  %.not10.i.i = icmp eq i64 %14, 0
  %15 = inttoptr i64 %6 to ptr
  br i1 %.not10.i.i, label %RB_SYMBOL_P.exit.i.i, label %._crit_edge.i

RB_SYMBOL_P.exit.i.i:                             ; preds = %13
  %16 = load i64, ptr %15, align 8, !tbaa !42
  %.fr11.i.i = freeze i64 %16
  %17 = and i64 %.fr11.i.i, 31
  %18 = icmp eq i64 %17, 20
  br i1 %18, label %f_lambda_filter_non_literal.exit, label %._crit_edge.i

19:                                               ; preds = %8
  %20 = getelementptr i8, ptr %5, i64 88
  %21 = load ptr, ptr %20, align 8, !tbaa !120
  %22 = and i64 %6, -4
  %23 = inttoptr i64 %22 to ptr
  %24 = getelementptr inbounds nuw i8, ptr %23, i64 8
  %25 = load ptr, ptr %24, align 8, !tbaa !17
  %26 = icmp eq ptr %21, %25
  br i1 %26, label %f_lambda_filter_non_literal.exit, label %vm_block_handler_type.exit.i

._crit_edge.i:                                    ; preds = %RB_SYMBOL_P.exit.i.i, %13
  %27 = getelementptr inbounds nuw i8, ptr %15, i64 32
  %28 = load ptr, ptr %27, align 8, !tbaa !7
  %29 = getelementptr inbounds nuw i8, ptr %28, i64 32
  %30 = load i8, ptr %29, align 8
  %31 = and i8 %30, 2
  %.not.i.i = icmp eq i8 %31, 0
  br i1 %.not.i.i, label %vm_block_handler_type.exit.i, label %f_lambda_filter_non_literal.exit

vm_block_handler_type.exit.i:                     ; preds = %._crit_edge.i, %19, %8
  %32 = load i64, ptr @rb_eArgError, align 8, !tbaa !36
  tail call void (i64, ptr, ...) @rb_raise(i64 noundef %32, ptr noundef nonnull @.str.89) #22
  unreachable

f_lambda_filter_non_literal.exit:                 ; preds = %1, %10, %RB_SYMBOL_P.exit.i.i, %19, %._crit_edge.i
  %33 = load i64, ptr @rb_cProc, align 8, !tbaa !36
  %34 = tail call fastcc i64 @proc_new(i64 noundef %33, i8 noundef signext 1)
  ret i64 %34
}